; Function Attrs: nofree nounwind sspstrong uwtable
define dso_local %struct.book* @creat() local_unnamed_addr #0 {
  %1 = alloca i32, align 4
  %2 = bitcast i32* %1 to i8*
  call void @llvm.lifetime.start.p0i8(i64 4, i8* nonnull %2) #6
  %3 = call i32 (i8*, ...) @__isoc99_scanf(i8* getelementptr inbounds ([3 x i8], [3 x i8]* @.str, i64 0, i64 0), i32* nonnull %1)
  %4 = call noalias align 16 dereferenceable_or_null(40) i8* @malloc(i64 40) #6
  %5 = bitcast i8* %4 to %struct.book*
  %6 = load i32, i32* %1, align 4, !tbaa !5
  %7 = icmp sgt i32 %6, 0
  br i1 %7, label %8, label %33

8:                                                ; preds = %0
  %9 = call noalias align 16 dereferenceable_or_null(40) i8* @malloc(i64 40) #6
  %10 = bitcast i8* %9 to %struct.book*
  %11 = getelementptr inbounds %struct.book, %struct.book* %10, i64 0, i32 1
  %12 = getelementptr inbounds %struct.book, %struct.book* %10, i64 0, i32 0, i64 0
  %13 = call i32 (i8*, ...) @__isoc99_scanf(i8* getelementptr inbounds ([6 x i8], [6 x i8]* @.str.1, i64 0, i64 0), i32* nonnull %11, i8* %12)
  %14 = getelementptr inbounds %struct.book, %struct.book* %10, i64 0, i32 2
  store %struct.book* null, %struct.book** %14, align 16, !tbaa !9
  %15 = load i32, i32* %1, align 4, !tbaa !5
  %16 = icmp sgt i32 %15, 1
  br i1 %16, label %17, label %33

17:                                               ; preds = %8, %17
  %18 = phi i32 [ %28, %17 ], [ 1, %8 ]
  %19 = phi %struct.book* [ %20, %17 ], [ %5, %8 ]
  %20 = phi %struct.book* [ %23, %17 ], [ %10, %8 ]
  %21 = getelementptr inbounds %struct.book, %struct.book* %19, i64 0, i32 2
  store %struct.book* %20, %struct.book** %21, align 8, !tbaa !9
  %22 = call noalias align 16 dereferenceable_or_null(40) i8* @malloc(i64 40) #6
  %23 = bitcast i8* %22 to %struct.book*
  %24 = getelementptr inbounds %struct.book, %struct.book* %23, i64 0, i32 1
  %25 = getelementptr inbounds %struct.book, %struct.book* %23, i64 0, i32 0, i64 0
  %26 = call i32 (i8*, ...) @__isoc99_scanf(i8* getelementptr inbounds ([6 x i8], [6 x i8]* @.str.1, i64 0, i64 0), i32* nonnull %24, i8* %25)
  %27 = getelementptr inbounds %struct.book, %struct.book* %23, i64 0, i32 2
  store %struct.book* null, %struct.book** %27, align 16, !tbaa !9
  %28 = add nuw nsw i32 %18, 1
  %29 = load i32, i32* %1, align 4, !tbaa !5
  %30 = icmp slt i32 %28, %29
  br i1 %30, label %17, label %31, !llvm.loop !12

31:                                               ; preds = %17
  %32 = bitcast i8* %22 to %struct.book*
  br label %33

33:                                               ; preds = %31, %8, %0
  %34 = phi %struct.book* [ null, %0 ], [ %5, %8 ], [ %5, %31 ]
  %35 = phi %struct.book* [ %5, %0 ], [ %10, %8 ], [ %32, %31 ]
  %36 = phi %struct.book* [ %5, %0 ], [ %5, %8 ], [ %20, %31 ]
  %37 = getelementptr inbounds %struct.book, %struct.book* %36, i64 0, i32 2
  store %struct.book* %35, %struct.book** %37, align 8, !tbaa !9
  call void @llvm.lifetime.end.p0i8(i64 4, i8* nonnull %2) #6
  ret %struct.book* %34
}

; Function Attrs: nofree nounwind sspstrong uwtable
define dso_local void @main() local_unnamed_addr #0 {
  %1 = alloca [26 x [1000 x i32]], align 16
  %2 = alloca [26 x i32], align 16
  %3 = bitcast [26 x [1000 x i32]]* %1 to i8*
  call void @llvm.lifetime.start.p0i8(i64 104000, i8* nonnull %3) #6
  call void @llvm.memset.p0i8.i64(i8* noundef nonnull align 16 dereferenceable(104000) %3, i8 0, i64 104000, i1 false)
  %4 = bitcast [26 x i32]* %2 to i8*
  call void @llvm.lifetime.start.p0i8(i64 104, i8* nonnull %4) #6
  call void @llvm.memset.p0i8.i64(i8* noundef nonnull align 16 dereferenceable(104) %4, i8 0, i64 104, i1 false)
  %5 = tail call %struct.book* @creat()
  %6 = getelementptr inbounds %struct.book, %struct.book* %5, i64 0, i32 2
  %7 = load %struct.book*, %struct.book** %6, align 8, !tbaa !9
  %8 = icmp eq %struct.book* %7, null
  br i1 %8, label %104, label %25

9:                                                ; preds = %38, %31
  %10 = phi i8* [ %27, %31 ], [ %58, %38 ]
  %11 = icmp eq i32 %34, 0
  br i1 %11, label %21, label %12

12:                                               ; preds = %9
  %13 = load i8, i8* %10, align 1, !tbaa !15
  %14 = sext i8 %13 to i64
  %15 = add nsw i64 %14, -65
  %16 = getelementptr inbounds [26 x i32], [26 x i32]* %2, i64 0, i64 %15
  %17 = load i32, i32* %16, align 4, !tbaa !5
  %18 = sext i32 %17 to i64
  %19 = getelementptr inbounds [26 x [1000 x i32]], [26 x [1000 x i32]]* %1, i64 0, i64 %15, i64 %18
  store i32 %33, i32* %19, align 4, !tbaa !5
  %20 = add nsw i32 %17, 1
  store i32 %20, i32* %16, align 4, !tbaa !5
  br label %21

21:                                               ; preds = %12, %9, %25
  %22 = getelementptr inbounds %struct.book, %struct.book* %26, i64 0, i32 2
  %23 = load %struct.book*, %struct.book** %22, align 8, !tbaa !9
  %24 = icmp eq %struct.book* %23, null
  br i1 %24, label %61, label %25, !llvm.loop !16

25:                                               ; preds = %0, %21
  %26 = phi %struct.book* [ %23, %21 ], [ %7, %0 ]
  %27 = getelementptr inbounds %struct.book, %struct.book* %26, i64 0, i32 0, i64 0
  %28 = tail call i64 @strlen(i8* noundef nonnull %27) #7
  %29 = trunc i64 %28 to i32
  %30 = icmp sgt i32 %29, 0
  br i1 %30, label %31, label %21

31:                                               ; preds = %25
  %32 = getelementptr inbounds %struct.book, %struct.book* %26, i64 0, i32 1
  %33 = load i32, i32* %32, align 4, !tbaa !17
  %34 = and i32 %29, 1
  %35 = icmp eq i32 %29, 1
  br i1 %35, label %9, label %36

36:                                               ; preds = %31
  %37 = and i32 %29, -2
  br label %38

38:                                               ; preds = %38, %36
  %39 = phi i8* [ %27, %36 ], [ %58, %38 ]
  %40 = phi i32 [ %37, %36 ], [ %59, %38 ]
  %41 = load i8, i8* %39, align 1, !tbaa !15
  %42 = sext i8 %41 to i64
  %43 = add nsw i64 %42, -65
  %44 = getelementptr inbounds [26 x i32], [26 x i32]* %2, i64 0, i64 %43
  %45 = load i32, i32* %44, align 4, !tbaa !5
  %46 = sext i32 %45 to i64
  %47 = getelementptr inbounds [26 x [1000 x i32]], [26 x [1000 x i32]]* %1, i64 0, i64 %43, i64 %46
  store i32 %33, i32* %47, align 4, !tbaa !5
  %48 = add nsw i32 %45, 1
  store i32 %48, i32* %44, align 4, !tbaa !5
  %49 = getelementptr inbounds i8, i8* %39, i64 1
  %50 = load i8, i8* %49, align 1, !tbaa !15
  %51 = sext i8 %50 to i64
  %52 = add nsw i64 %51, -65
  %53 = getelementptr inbounds [26 x i32], [26 x i32]* %2, i64 0, i64 %52
  %54 = load i32, i32* %53, align 4, !tbaa !5
  %55 = sext i32 %54 to i64
  %56 = getelementptr inbounds [26 x [1000 x i32]], [26 x [1000 x i32]]* %1, i64 0, i64 %52, i64 %55
  store i32 %33, i32* %56, align 4, !tbaa !5
  %57 = add nsw i32 %54, 1
  store i32 %57, i32* %53, align 4, !tbaa !5
  %58 = getelementptr inbounds i8, i8* %39, i64 2
  %59 = add i32 %40, -2
  %60 = icmp eq i32 %59, 0
  br i1 %60, label %9, label %38, !llvm.loop !18

61:                                               ; preds = %21
  %62 = getelementptr inbounds [26 x i32], [26 x i32]* %2, i64 0, i64 0
  %63 = load i32, i32* %62, align 16, !tbaa !5
  %64 = getelementptr inbounds [26 x i32], [26 x i32]* %2, i64 0, i64 1
  %65 = load i32, i32* %64, align 4, !tbaa !5
  %66 = getelementptr inbounds [26 x i32], [26 x i32]* %2, i64 0, i64 2
  %67 = load i32, i32* %66, align 8, !tbaa !5
  %68 = getelementptr inbounds [26 x i32], [26 x i32]* %2, i64 0, i64 3
  %69 = load i32, i32* %68, align 4, !tbaa !5
  %70 = getelementptr inbounds [26 x i32], [26 x i32]* %2, i64 0, i64 4
  %71 = load i32, i32* %70, align 16, !tbaa !5
  %72 = getelementptr inbounds [26 x i32], [26 x i32]* %2, i64 0, i64 5
  %73 = load i32, i32* %72, align 4, !tbaa !5
  %74 = getelementptr inbounds [26 x i32], [26 x i32]* %2, i64 0, i64 6
  %75 = load i32, i32* %74, align 8, !tbaa !5
  %76 = getelementptr inbounds [26 x i32], [26 x i32]* %2, i64 0, i64 7
  %77 = load i32, i32* %76, align 4, !tbaa !5
  %78 = getelementptr inbounds [26 x i32], [26 x i32]* %2, i64 0, i64 8
  %79 = load i32, i32* %78, align 16, !tbaa !5
  %80 = getelementptr inbounds [26 x i32], [26 x i32]* %2, i64 0, i64 9
  %81 = load i32, i32* %80, align 4, !tbaa !5
  %82 = getelementptr inbounds [26 x i32], [26 x i32]* %2, i64 0, i64 10
  %83 = load i32, i32* %82, align 8, !tbaa !5
  %84 = getelementptr inbounds [26 x i32], [26 x i32]* %2, i64 0, i64 11
  %85 = load i32, i32* %84, align 4, !tbaa !5
  %86 = getelementptr inbounds [26 x i32], [26 x i32]* %2, i64 0, i64 12
  %87 = load i32, i32* %86, align 16, !tbaa !5
  %88 = getelementptr inbounds [26 x i32], [26 x i32]* %2, i64 0, i64 13
  %89 = load i32, i32* %88, align 4, !tbaa !5
  %90 = getelementptr inbounds [26 x i32], [26 x i32]* %2, i64 0, i64 14
  %91 = load i32, i32* %90, align 8, !tbaa !5
  %92 = getelementptr inbounds [26 x i32], [26 x i32]* %2, i64 0, i64 15
  %93 = load i32, i32* %92, align 4, !tbaa !5
  %94 = getelementptr inbounds [26 x i32], [26 x i32]* %2, i64 0, i64 16
  %95 = load i32, i32* %94, align 16, !tbaa !5
  %96 = getelementptr inbounds [26 x i32], [26 x i32]* %2, i64 0, i64 17
  %97 = load i32, i32* %96, align 4, !tbaa !5
  %98 = getelementptr inbounds [26 x i32], [26 x i32]* %2, i64 0, i64 18
  %99 = load i32, i32* %98, align 8, !tbaa !5
  %100 = getelementptr inbounds [26 x i32], [26 x i32]* %2, i64 0, i64 19
  %101 = load i32, i32* %100, align 4, !tbaa !5
  %102 = getelementptr inbounds [26 x i32], [26 x i32]* %2, i64 0, i64 20
  %103 = load i32, i32* %102, align 16, !tbaa !5
  br label %104

104:                                              ; preds = %61, %0
  %105 = phi i32 [ %103, %61 ], [ 0, %0 ]
  %106 = phi i32 [ %101, %61 ], [ 0, %0 ]
  %107 = phi i32 [ %99, %61 ], [ 0, %0 ]
  %108 = phi i32 [ %97, %61 ], [ 0, %0 ]
  %109 = phi i32 [ %95, %61 ], [ 0, %0 ]
  %110 = phi i32 [ %93, %61 ], [ 0, %0 ]
  %111 = phi i32 [ %91, %61 ], [ 0, %0 ]
  %112 = phi i32 [ %89, %61 ], [ 0, %0 ]
  %113 = phi i32 [ %87, %61 ], [ 0, %0 ]
  %114 = phi i32 [ %85, %61 ], [ 0, %0 ]
  %115 = phi i32 [ %83, %61 ], [ 0, %0 ]
  %116 = phi i32 [ %81, %61 ], [ 0, %0 ]
  %117 = phi i32 [ %79, %61 ], [ 0, %0 ]
  %118 = phi i32 [ %77, %61 ], [ 0, %0 ]
  %119 = phi i32 [ %75, %61 ], [ 0, %0 ]
  %120 = phi i32 [ %73, %61 ], [ 0, %0 ]
  %121 = phi i32 [ %71, %61 ], [ 0, %0 ]
  %122 = phi i32 [ %69, %61 ], [ 0, %0 ]
  %123 = phi i32 [ %67, %61 ], [ 0, %0 ]
  %124 = phi i32 [ %65, %61 ], [ 0, %0 ]
  %125 = phi i32 [ %63, %61 ], [ 0, %0 ]
  %126 = icmp sgt i32 %124, %125
  %127 = select i1 %126, i32 %124, i32 %125
  %128 = zext i1 %126 to i32
  %129 = icmp sgt i32 %123, %127
  %130 = select i1 %129, i32 %123, i32 %127
  %131 = select i1 %129, i32 2, i32 %128
  %132 = icmp sgt i32 %122, %130
  %133 = select i1 %132, i32 %122, i32 %130
  %134 = select i1 %132, i32 3, i32 %131
  %135 = icmp sgt i32 %121, %133
  %136 = select i1 %135, i32 %121, i32 %133
  %137 = select i1 %135, i32 4, i32 %134
  %138 = icmp sgt i32 %120, %136
  %139 = select i1 %138, i32 %120, i32 %136
  %140 = select i1 %138, i32 5, i32 %137
  %141 = icmp sgt i32 %119, %139
  %142 = select i1 %141, i32 %119, i32 %139
  %143 = select i1 %141, i32 6, i32 %140
  %144 = icmp sgt i32 %118, %142
  %145 = select i1 %144, i32 %118, i32 %142
  %146 = select i1 %144, i32 7, i32 %143
  %147 = icmp sgt i32 %117, %145
  %148 = select i1 %147, i32 %117, i32 %145
  %149 = select i1 %147, i32 8, i32 %146
  %150 = icmp sgt i32 %116, %148
  %151 = select i1 %150, i32 %116, i32 %148
  %152 = select i1 %150, i32 9, i32 %149
  %153 = icmp sgt i32 %115, %151
  %154 = select i1 %153, i32 %115, i32 %151
  %155 = select i1 %153, i32 10, i32 %152
  %156 = icmp sgt i32 %114, %154
  %157 = select i1 %156, i32 %114, i32 %154
  %158 = select i1 %156, i32 11, i32 %155
  %159 = icmp sgt i32 %113, %157
  %160 = select i1 %159, i32 %113, i32 %157
  %161 = select i1 %159, i32 12, i32 %158
  %162 = icmp sgt i32 %112, %160
  %163 = select i1 %162, i32 %112, i32 %160
  %164 = select i1 %162, i32 13, i32 %161
  %165 = icmp sgt i32 %111, %163
  %166 = select i1 %165, i32 %111, i32 %163
  %167 = select i1 %165, i32 14, i32 %164
  %168 = icmp sgt i32 %110, %166
  %169 = select i1 %168, i32 %110, i32 %166
  %170 = select i1 %168, i32 15, i32 %167
  %171 = icmp sgt i32 %109, %169
  %172 = select i1 %171, i32 %109, i32 %169
  %173 = select i1 %171, i32 16, i32 %170
  %174 = icmp sgt i32 %108, %172
  %175 = select i1 %174, i32 %108, i32 %172
  %176 = select i1 %174, i32 17, i32 %173
  %177 = icmp sgt i32 %107, %175
  %178 = select i1 %177, i32 %107, i32 %175
  %179 = select i1 %177, i32 18, i32 %176
  %180 = icmp sgt i32 %106, %178
  %181 = select i1 %180, i32 %106, i32 %178
  %182 = select i1 %180, i32 19, i32 %179
  %183 = icmp sgt i32 %105, %181
  %184 = select i1 %183, i32 %105, i32 %181
  %185 = select i1 %183, i32 20, i32 %182
  %186 = getelementptr inbounds [26 x i32], [26 x i32]* %2, i64 0, i64 21
  %187 = load i32, i32* %186, align 4, !tbaa !5
  %188 = icmp sgt i32 %187, %184
  %189 = select i1 %188, i32 %187, i32 %184
  %190 = select i1 %188, i32 21, i32 %185
  %191 = getelementptr inbounds [26 x i32], [26 x i32]* %2, i64 0, i64 22
  %192 = load i32, i32* %191, align 8, !tbaa !5
  %193 = icmp sgt i32 %192, %189
  %194 = select i1 %193, i32 %192, i32 %189
  %195 = select i1 %193, i32 22, i32 %190
  %196 = getelementptr inbounds [26 x i32], [26 x i32]* %2, i64 0, i64 23
  %197 = load i32, i32* %196, align 4, !tbaa !5
  %198 = icmp sgt i32 %197, %194
  %199 = select i1 %198, i32 %197, i32 %194
  %200 = select i1 %198, i32 23, i32 %195
  %201 = getelementptr inbounds [26 x i32], [26 x i32]* %2, i64 0, i64 24
  %202 = load i32, i32* %201, align 16, !tbaa !5
  %203 = icmp sgt i32 %202, %199
  %204 = select i1 %203, i32 %202, i32 %199
  %205 = select i1 %203, i32 24, i32 %200
  %206 = getelementptr inbounds [26 x i32], [26 x i32]* %2, i64 0, i64 25
  %207 = load i32, i32* %206, align 4, !tbaa !5
  %208 = icmp sgt i32 %207, %204
  %209 = select i1 %208, i32 %207, i32 %204
  %210 = select i1 %208, i32 25, i32 %205
  %211 = add nuw nsw i32 %210, 65
  %212 = tail call i32 (i8*, ...) @printf(i8* nonnull dereferenceable(1) getelementptr inbounds ([7 x i8], [7 x i8]* @.str.2, i64 0, i64 0), i32 %211, i32 %209)
  %213 = zext i32 %210 to i64
  %214 = icmp sgt i32 %209, 0
  br i1 %214, label %215, label %224

215:                                              ; preds = %104
  %216 = zext i32 %209 to i64
  br label %217

217:                                              ; preds = %215, %217
  %218 = phi i64 [ 0, %215 ], [ %222, %217 ]
  %219 = getelementptr inbounds [26 x [1000 x i32]], [26 x [1000 x i32]]* %1, i64 0, i64 %213, i64 %218
  %220 = load i32, i32* %219, align 4, !tbaa !5
  %221 = tail call i32 (i8*, ...) @printf(i8* nonnull dereferenceable(1) getelementptr inbounds ([4 x i8], [4 x i8]* @.str.3, i64 0, i64 0), i32 %220)
  %222 = add nuw nsw i64 %218, 1
  %223 = icmp eq i64 %222, %216
  br i1 %223, label %224, label %217, !llvm.loop !19

224:                                              ; preds = %217, %104
  call void @llvm.lifetime.end.p0i8(i64 104, i8* nonnull %4) #6
  call void @llvm.lifetime.end.p0i8(i64 104000, i8* nonnull %3) #6
  ret void
}